target datalayout = "e-m:e-p270:32:32-p271:32:32-p272:64:64-i64:64-i128:128-f80:128-n8:16:32:64-S128"
target triple = "x86_64-pc-linux-gnu"

%class.arith_util = type { ptr, ptr }

; Function Attrs: mustprogress uwtable
define linkonce_odr hidden noundef ptr @_ZN10arith_util6mk_intEv(ptr noundef nonnull align 8 dereferenceable(16) %0) #4 comdat align 2 {
  %2 = alloca ptr, align 8
  store ptr %0, ptr %2, align 8, !tbaa !222
  %3 = load ptr, ptr %2, align 8
  %4 = getelementptr inbounds nuw %class.arith_util, ptr %3, i32 0, i32 0
  %5 = load ptr, ptr %4, align 8, !tbaa !240
  %6 = call noundef ptr @_ZN11ast_manager7mk_sortEiijPK9parameter(ptr noundef nonnull align 8 dereferenceable(976) %5, i32 noundef 5, i32 noundef 1, i32 noundef 0, ptr noundef null)
  ret ptr %6
}

; Function Attrs: mustprogress uwtable
define hidden noundef ptr @_ZN10arith_util7mk_rem0Ev(ptr noundef nonnull align 8 dereferenceable(16) %0) #4 align 2 {
  %2 = alloca ptr, align 8
  %3 = alloca [2 x ptr], align 16
  store ptr %0, ptr %2, align 8, !tbaa !222
  %4 = load ptr, ptr %2, align 8
  call void @llvm.lifetime.start.p0(i64 16, ptr %3) #3
  %5 = call noundef ptr @_ZN10arith_util6mk_intEv(ptr noundef nonnull align 8 dereferenceable(16) %4)
  store ptr %5, ptr %3, align 8, !tbaa !51
  %6 = getelementptr inbounds ptr, ptr %3, i64 1
  %7 = call noundef ptr @_ZN10arith_util6mk_intEv(ptr noundef nonnull align 8 dereferenceable(16) %4)
  store ptr %7, ptr %6, align 8, !tbaa !51
  %8 = getelementptr inbounds nuw %class.arith_util, ptr %4, i32 0, i32 0
  %9 = load ptr, ptr %8, align 8, !tbaa !240
  %10 = getelementptr inbounds [2 x ptr], ptr %3, i64 0, i64 0
  %11 = call noundef ptr @_ZN10arith_util6mk_intEv(ptr noundef nonnull align 8 dereferenceable(16) %4)
  %12 = call noundef ptr @_ZN11ast_manager12mk_func_declEiijPK9parameterjPKP4sortS4_(ptr noundef nonnull align 8 dereferenceable(976) %9, i32 noundef 5, i32 noundef 17, i32 noundef 0, ptr noundef null, i32 noundef 2, ptr noundef %10, ptr noundef %11)
  call void @llvm.lifetime.end.p0(i64 16, ptr %3) #3
  ret ptr %12
}