; Function Attrs: mustprogress uwtable
define hidden noundef ptr @_ZN10arith_util7mk_rem0Ev(ptr noundef nonnull readonly align 8 captures(none) dereferenceable(16) %0) local_unnamed_addr #3 align 2 {
  %2 = alloca [2 x ptr], align 16
  call void @llvm.lifetime.start.p0(i64 16, ptr nonnull %2) #24
  %3 = load ptr, ptr %0, align 8, !tbaa !220
  %4 = tail call noundef ptr @_ZN11ast_manager7mk_sortEiijPK9parameter(ptr noundef nonnull align 8 dereferenceable(976) %3, i32 noundef 5, i32 noundef 1, i32 noundef 0, ptr noundef null)
  store ptr %4, ptr %2, align 16, !tbaa !143
  %5 = getelementptr inbounds nuw i8, ptr %2, i64 8
  %6 = load ptr, ptr %0, align 8, !tbaa !220
  %7 = tail call noundef ptr @_ZN11ast_manager7mk_sortEiijPK9parameter(ptr noundef nonnull align 8 dereferenceable(976) %6, i32 noundef 5, i32 noundef 1, i32 noundef 0, ptr noundef null)
  store ptr %7, ptr %5, align 8, !tbaa !143
  %8 = load ptr, ptr %0, align 8, !tbaa !220
  %9 = tail call noundef ptr @_ZN11ast_manager7mk_sortEiijPK9parameter(ptr noundef nonnull align 8 dereferenceable(976) %8, i32 noundef 5, i32 noundef 1, i32 noundef 0, ptr noundef null)
  %10 = call noundef ptr @_ZN11ast_manager12mk_func_declEiijPK9parameterjPKP4sortS4_(ptr noundef nonnull align 8 dereferenceable(976) %8, i32 noundef 5, i32 noundef 17, i32 noundef 0, ptr noundef null, i32 noundef 2, ptr noundef nonnull %2, ptr noundef %9)
  call void @llvm.lifetime.end.p0(i64 16, ptr nonnull %2) #24
  ret ptr %10
}